; Function Attrs: mustprogress nofree norecurse nosync nounwind willreturn memory(read, inaccessiblemem: none) uwtable
define internal i32 @sigx_cmp(ptr noundef readonly captures(none) %0, ptr noundef readonly captures(none) %1) #3 {
  %3 = load ptr, ptr %0, align 8, !tbaa !8
  %4 = getelementptr inbounds nuw i8, ptr %3, i64 4
  %5 = load i32, ptr %4, align 4, !tbaa !12
  %6 = load ptr, ptr %1, align 8, !tbaa !8
  %7 = getelementptr inbounds nuw i8, ptr %6, i64 4
  %8 = load i32, ptr %7, align 4, !tbaa !12
  %9 = sub nsw i32 %5, %8
  %.not = icmp eq i32 %9, 0
  %.not8 = icmp eq i32 %8, 0
  %or.cond = or i1 %.not8, %.not
  br i1 %or.cond, label %10, label %16

10:                                               ; preds = %2
  %11 = getelementptr inbounds nuw i8, ptr %3, i64 8
  %12 = load i32, ptr %11, align 4, !tbaa !14
  %13 = getelementptr inbounds nuw i8, ptr %6, i64 8
  %14 = load i32, ptr %13, align 4, !tbaa !14
  %15 = sub nsw i32 %12, %14
  br label %16

16:                                               ; preds = %2, %10
  %.0 = phi i32 [ %15, %10 ], [ %9, %2 ]
  ret i32 %.0
}